; Function Attrs: mustprogress nofree norecurse nosync nounwind willreturn memory(write, argmem: readwrite, inaccessiblemem: none) uwtable
define hidden void @_ZN15BaseFrameStream16set_continuationE6Handle(ptr nocapture noundef nonnull readonly align 8 dereferenceable(32) %0, ptr readonly %1) local_unnamed_addr #4 align 2 {
  %3 = icmp eq ptr %1, null
  br i1 %3, label %_ZNK6HandleclEv.exit, label %4

4:                                                ; preds = %2
  %5 = load ptr, ptr %1, align 8
  br label %_ZNK6HandleclEv.exit

_ZNK6HandleclEv.exit:                             ; preds = %2, %4
  %6 = phi ptr [ %5, %4 ], [ null, %2 ]
  %7 = getelementptr inbounds i8, ptr %0, i64 16
  %8 = load ptr, ptr %7, align 8
  store ptr %6, ptr %8, align 8
  ret void
}